(ikeras_frcnn.config
Config
p0
(dp1
S'use_vertical_flips'
p2
I00
sS'verbose'
p3
I01
sS'classifier_regr_std'
p4
(lp5
F8.0
aF8.0
aF4.0
aF4.0
asS'classifier_min_overlap'
p6
F0.1
sS'rot_90'
p7
I00
sS'class_mapping'
p8
(dp9
S'bg'
p10
I6
sS'1'
p11
I4
sS'3'
p12
I0
sS'2'
p13
I5
sS'5'
p14
I2
sS'4'
p15
I1
sS'6'
p16
I3
ssS'use_horizontal_flips'
p17
I01
sS'rpn_max_overlap'
p18
F0.7
sS'network'
p19
S'vgg16'
p20
sS'img_channel_mean'
p21
(lp22
F103.939
aF116.779
aF123.68
asS'balanced_classes'
p23
I00
sS'anchor_box_ratios'
p24
(lp25
(lp26
I1
aI1
aa(lp27
I1
aI2
aa(lp28
I2
aI1
aasS'img_scaling_factor'
p29
F1.0
sS'rpn_stride'
p30
I16
sS'num_rois'
p31
I10
sS'base_net_weights'
p32
S'pretrain/vgg16_weights_tf_dim_ordering_tf_kernels.h5'
p33
sS'anchor_box_scales'
p34
(lp35
I128
aI256
aI512
asS'rpn_min_overlap'
p36
F0.3
sS'model_path'
p37
S'models/vgg/voc.hdf5'
p38
sS'classifier_max_overlap'
p39
F0.5
sS'std_scaling'
p40
F4.0
sS'im_size'
p41
I600
sb.